; Function Attrs: nofree norecurse nosync nounwind memory(read, inaccessiblemem: none) uwtable
define internal double @SSIMGet_C(ptr nocapture noundef readonly %0, i32 noundef %1, ptr nocapture noundef readonly %2, i32 noundef %3) #3 {
  %5 = sext i32 %1 to i64
  %6 = sext i32 %3 to i64
  br label %.preheader

.preheader:                                       ; preds = %4, %29
  %indvars.iv57 = phi i64 [ 0, %4 ], [ %indvars.iv.next58, %29 ]
  %.051 = phi ptr [ %0, %4 ], [ %30, %29 ]
  %.02650 = phi ptr [ %2, %4 ], [ %31, %29 ]
  %.sroa.13.048 = phi i32 [ 0, %4 ], [ %28, %29 ]
  %.sroa.10.047 = phi i32 [ 0, %4 ], [ %26, %29 ]
  %.sroa.7.046 = phi i32 [ 0, %4 ], [ %24, %29 ]
  %.sroa.4.045 = phi i32 [ 0, %4 ], [ %22, %29 ]
  %.sroa.1.044 = phi i32 [ 0, %4 ], [ %20, %29 ]
  %7 = getelementptr inbounds [7 x i32], ptr @kWeight, i64 0, i64 %indvars.iv57
  %8 = load i32, ptr %7, align 4
  br label %9

9:                                                ; preds = %.preheader, %9
  %indvars.iv = phi i64 [ 0, %.preheader ], [ %indvars.iv.next, %9 ]
  %.sroa.13.142 = phi i32 [ %.sroa.13.048, %.preheader ], [ %28, %9 ]
  %.sroa.10.141 = phi i32 [ %.sroa.10.047, %.preheader ], [ %26, %9 ]
  %.sroa.7.140 = phi i32 [ %.sroa.7.046, %.preheader ], [ %24, %9 ]
  %.sroa.4.139 = phi i32 [ %.sroa.4.045, %.preheader ], [ %22, %9 ]
  %.sroa.1.138 = phi i32 [ %.sroa.1.044, %.preheader ], [ %20, %9 ]
  %10 = getelementptr inbounds [7 x i32], ptr @kWeight, i64 0, i64 %indvars.iv
  %11 = load i32, ptr %10, align 4
  %12 = mul i32 %8, %11
  %13 = getelementptr inbounds i8, ptr %.051, i64 %indvars.iv
  %14 = load i8, ptr %13, align 1
  %15 = zext i8 %14 to i32
  %16 = getelementptr inbounds i8, ptr %.02650, i64 %indvars.iv
  %17 = load i8, ptr %16, align 1
  %18 = zext i8 %17 to i32
  %19 = mul i32 %12, %15
  %20 = add i32 %19, %.sroa.1.138
  %21 = mul i32 %12, %18
  %22 = add i32 %21, %.sroa.4.139
  %23 = mul i32 %19, %15
  %24 = add i32 %23, %.sroa.7.140
  %25 = mul i32 %19, %18
  %26 = add i32 %25, %.sroa.10.141
  %27 = mul i32 %21, %18
  %28 = add i32 %27, %.sroa.13.142
  %indvars.iv.next = add nuw nsw i64 %indvars.iv, 1
  %exitcond.not = icmp eq i64 %indvars.iv.next, 7
  br i1 %exitcond.not, label %29, label %9, !llvm.loop !7

29:                                               ; preds = %9
  %indvars.iv.next58 = add nuw nsw i64 %indvars.iv57, 1
  %30 = getelementptr inbounds i8, ptr %.051, i64 %5
  %31 = getelementptr inbounds i8, ptr %.02650, i64 %6
  %exitcond60.not = icmp eq i64 %indvars.iv.next58, 7
  br i1 %exitcond60.not, label %32, label %.preheader, !llvm.loop !8

32:                                               ; preds = %29
  %33 = zext i32 %20 to i64
  %34 = mul nuw i64 %33, %33
  %35 = zext i32 %22 to i64
  %36 = mul nuw i64 %35, %35
  %37 = add i64 %36, %34
  %.not.i.i = icmp ult i64 %37, 4194304
  br i1 %.not.i.i, label %VP8SSIMFromStats.exit, label %38

38:                                               ; preds = %32
  %39 = mul nuw nsw i64 %35, %33
  %40 = zext i32 %26 to i64
  %41 = shl nuw nsw i64 %40, 8
  %42 = sub nsw i64 %41, %39
  %43 = zext i32 %24 to i64
  %44 = zext i32 %28 to i64
  %45 = tail call i64 @llvm.smax.i64(i64 %42, i64 0)
  %46 = shl nuw nsw i64 %45, 1
  %47 = add nuw nsw i64 %46, 3932160
  %48 = lshr i64 %47, 8
  %reass.add.i.i = add nuw nsw i64 %44, %43
  %reass.mul.i.i = shl nuw nsw i64 %reass.add.i.i, 8
  %reass.sub = sub i64 %reass.mul.i.i, %37
  %49 = add i64 %reass.sub, 3932160
  %50 = lshr i64 %49, 8
  %51 = shl nuw nsw i64 %39, 1
  %52 = add nuw nsw i64 %51, 1310720
  %53 = mul i64 %48, %52
  %54 = add i64 %37, 1310720
  %55 = mul i64 %50, %54
  %56 = uitofp i64 %53 to double
  %57 = uitofp i64 %55 to double
  %58 = fdiv double %56, %57
  br label %VP8SSIMFromStats.exit

VP8SSIMFromStats.exit:                            ; preds = %32, %38
  %.0.i.i = phi double [ %58, %38 ], [ 1.000000e+00, %32 ]
  ret double %.0.i.i
}